target datalayout = "e-m:e-p270:32:32-p271:32:32-p272:64:64-i64:64-i128:128-f80:128-n8:16:32:64-S128"
target triple = "x86_64-unknown-linux-gnu"

%"struct.std::atomic.0" = type { %"struct.std::__atomic_base.1" }
%"struct.std::__atomic_base.1" = type { i64 }
%"class.std::unique_ptr.9" = type { %"struct.std::__uniq_ptr_data.10" }
%"struct.std::__uniq_ptr_data.10" = type { %"class.std::__uniq_ptr_impl.11" }
%"class.std::__uniq_ptr_impl.11" = type { %"class.std::tuple.12" }
%"class.std::tuple.12" = type { %"struct.std::_Tuple_impl.13" }
%"struct.std::_Tuple_impl.13" = type { %"struct.std::_Head_base.16" }
%"struct.std::_Head_base.16" = type { ptr }
%"class.std::unique_ptr" = type { %"struct.std::__uniq_ptr_data" }
%"struct.std::__uniq_ptr_data" = type { %"class.std::__uniq_ptr_impl" }
%"class.std::__uniq_ptr_impl" = type { %"class.std::tuple" }
%"class.std::tuple" = type { %"struct.std::_Tuple_impl" }
%"struct.std::_Tuple_impl" = type { %"struct.std::_Head_base.8" }
%"struct.std::_Head_base.8" = type { ptr }
%"class.facebook::velox::memory::MmapAllocator" = type { %"class.facebook::velox::memory::MemoryAllocator", i32, i8, %"class.std::mutex", %"struct.std::atomic", i32, i64, i64, %"class.std::vector.2", %"struct.std::atomic", %"struct.std::atomic", %"struct.std::atomic", %"struct.std::atomic", %"class.std::mutex", %"class.std::unique_ptr", %"class.std::shared_ptr" }
%"class.facebook::velox::memory::MemoryAllocator" = type { ptr, %"class.std::enable_shared_from_this", %"class.std::vector", %"struct.std::atomic", %"struct.std::atomic", i32, i8, %"struct.facebook::velox::memory::Stats" }
%"class.std::enable_shared_from_this" = type { %"class.std::weak_ptr" }
%"class.std::weak_ptr" = type { %"class.std::__weak_ptr" }
%"class.std::__weak_ptr" = type { ptr, %"class.std::__weak_count" }
%"class.std::__weak_count" = type { ptr }
%"class.std::vector" = type { %"struct.std::_Vector_base" }
%"struct.std::_Vector_base" = type { %"struct.std::_Vector_base<unsigned long, std::allocator<unsigned long>>::_Vector_impl" }
%"struct.std::_Vector_base<unsigned long, std::allocator<unsigned long>>::_Vector_impl" = type { %"struct.std::_Vector_base<unsigned long, std::allocator<unsigned long>>::_Vector_impl_data" }
%"struct.std::_Vector_base<unsigned long, std::allocator<unsigned long>>::_Vector_impl_data" = type { ptr, ptr, ptr }
%"struct.facebook::velox::memory::Stats" = type { %"struct.std::array", i64 }
%"struct.std::array" = type { [20 x %"struct.facebook::velox::memory::SizeClassStats"] }
%"struct.facebook::velox::memory::SizeClassStats" = type { i32, %"struct.std::atomic", %"struct.std::atomic", %"struct.std::atomic.0", %"struct.std::atomic.0" }
%"class.std::vector.2" = type { %"struct.std::_Vector_base.3" }
%"struct.std::_Vector_base.3" = type { %"struct.std::_Vector_base<std::unique_ptr<facebook::velox::memory::MmapAllocator::SizeClass>, std::allocator<std::unique_ptr<facebook::velox::memory::MmapAllocator::SizeClass>>>::_Vector_impl" }
%"struct.std::_Vector_base<std::unique_ptr<facebook::velox::memory::MmapAllocator::SizeClass>, std::allocator<std::unique_ptr<facebook::velox::memory::MmapAllocator::SizeClass>>>::_Vector_impl" = type { %"struct.std::_Vector_base<std::unique_ptr<facebook::velox::memory::MmapAllocator::SizeClass>, std::allocator<std::unique_ptr<facebook::velox::memory::MmapAllocator::SizeClass>>>::_Vector_impl_data" }
%"struct.std::_Vector_base<std::unique_ptr<facebook::velox::memory::MmapAllocator::SizeClass>, std::allocator<std::unique_ptr<facebook::velox::memory::MmapAllocator::SizeClass>>>::_Vector_impl_data" = type { ptr, ptr, ptr }
%"struct.std::atomic" = type { %"struct.std::__atomic_base" }
%"struct.std::__atomic_base" = type { i64 }
%"class.std::mutex" = type { %"class.std::__mutex_base" }
%"class.std::__mutex_base" = type { %union.pthread_mutex_t }
%union.pthread_mutex_t = type { %struct.__pthread_mutex_s }
%struct.__pthread_mutex_s = type { i32, i32, i32, i32, i32, i16, i16, %struct.__pthread_internal_list }
%struct.__pthread_internal_list = type { ptr, ptr }
%"class.std::shared_ptr" = type { %"class.std::__shared_ptr" }
%"class.std::__shared_ptr" = type { ptr, %"class.std::__shared_count" }
%"class.std::__shared_count" = type { ptr }

; Function Attrs: mustprogress nounwind uwtable
define linkonce_odr noundef nonnull align 8 dereferenceable(8) ptr @_ZNSt10_Head_baseILm0EPN8facebook5velox6memory13MmapAllocator9SizeClassELb0EE7_M_headERKS6_(ptr noundef nonnull align 8 dereferenceable(8) %__b) #1 comdat align 2 {
entry:
  %__b.addr = alloca ptr, align 8
  store ptr %__b, ptr %__b.addr, align 8
  %0 = load ptr, ptr %__b.addr, align 8
  %_M_head_impl = getelementptr inbounds %"struct.std::_Head_base.16", ptr %0, i32 0, i32 0
  ret ptr %_M_head_impl
}

; Function Attrs: mustprogress nounwind uwtable
define linkonce_odr noundef nonnull align 8 dereferenceable(8) ptr @_ZNSt11_Tuple_implILm0EJPN8facebook5velox6memory13MmapAllocator9SizeClassESt14default_deleteIS4_EEE7_M_headERKS8_(ptr noundef nonnull align 8 dereferenceable(8) %__t) #1 comdat align 2 {
entry:
  %__t.addr = alloca ptr, align 8
  store ptr %__t, ptr %__t.addr, align 8
  %0 = load ptr, ptr %__t.addr, align 8
  %call = call noundef nonnull align 8 dereferenceable(8) ptr @_ZNSt10_Head_baseILm0EPN8facebook5velox6memory13MmapAllocator9SizeClassELb0EE7_M_headERKS6_(ptr noundef nonnull align 8 dereferenceable(8) %0) #21
  ret ptr %call
}

; Function Attrs: mustprogress nounwind uwtable
define linkonce_odr noundef nonnull align 8 dereferenceable(8) ptr @_ZSt12__get_helperILm0EPN8facebook5velox6memory13MmapAllocator9SizeClassEJSt14default_deleteIS4_EEERKT0_RKSt11_Tuple_implIXT_EJS8_DpT1_EE(ptr noundef nonnull align 8 dereferenceable(8) %__t) #1 comdat {
entry:
  %__t.addr = alloca ptr, align 8
  store ptr %__t, ptr %__t.addr, align 8
  %0 = load ptr, ptr %__t.addr, align 8
  %call = call noundef nonnull align 8 dereferenceable(8) ptr @_ZNSt11_Tuple_implILm0EJPN8facebook5velox6memory13MmapAllocator9SizeClassESt14default_deleteIS4_EEE7_M_headERKS8_(ptr noundef nonnull align 8 dereferenceable(8) %0) #21
  ret ptr %call
}

; Function Attrs: mustprogress nounwind uwtable
define linkonce_odr noundef nonnull align 8 dereferenceable(8) ptr @_ZSt3getILm0EJPN8facebook5velox6memory13MmapAllocator9SizeClassESt14default_deleteIS4_EEERKNSt13tuple_elementIXT_ESt5tupleIJDpT0_EEE4typeERKSC_(ptr noundef nonnull align 8 dereferenceable(8) %__t) #1 comdat {
entry:
  %__t.addr = alloca ptr, align 8
  store ptr %__t, ptr %__t.addr, align 8
  %0 = load ptr, ptr %__t.addr, align 8
  %call = call noundef nonnull align 8 dereferenceable(8) ptr @_ZSt12__get_helperILm0EPN8facebook5velox6memory13MmapAllocator9SizeClassEJSt14default_deleteIS4_EEERKT0_RKSt11_Tuple_implIXT_EJS8_DpT1_EE(ptr noundef nonnull align 8 dereferenceable(8) %0) #21
  ret ptr %call
}

; Function Attrs: mustprogress nounwind uwtable
define linkonce_odr noundef ptr @_ZNKSt15__uniq_ptr_implIN8facebook5velox6memory13MmapAllocator9SizeClassESt14default_deleteIS4_EE6_M_ptrEv(ptr noundef nonnull align 8 dereferenceable(8) %this) #1 comdat align 2 {
entry:
  %this.addr = alloca ptr, align 8
  store ptr %this, ptr %this.addr, align 8
  %this1 = load ptr, ptr %this.addr, align 8
  %_M_t = getelementptr inbounds %"class.std::__uniq_ptr_impl.11", ptr %this1, i32 0, i32 0
  %call = call noundef nonnull align 8 dereferenceable(8) ptr @_ZSt3getILm0EJPN8facebook5velox6memory13MmapAllocator9SizeClassESt14default_deleteIS4_EEERKNSt13tuple_elementIXT_ESt5tupleIJDpT0_EEE4typeERKSC_(ptr noundef nonnull align 8 dereferenceable(8) %_M_t) #21
  %0 = load ptr, ptr %call, align 8
  ret ptr %0
}

; Function Attrs: mustprogress nounwind uwtable
define linkonce_odr noundef ptr @_ZNKSt10unique_ptrIN8facebook5velox6memory13MmapAllocator9SizeClassESt14default_deleteIS4_EE3getEv(ptr noundef nonnull align 8 dereferenceable(8) %this) #1 comdat align 2 {
entry:
  %this.addr = alloca ptr, align 8
  store ptr %this, ptr %this.addr, align 8
  %this1 = load ptr, ptr %this.addr, align 8
  %_M_t = getelementptr inbounds %"class.std::unique_ptr.9", ptr %this1, i32 0, i32 0
  %call = call noundef ptr @_ZNKSt15__uniq_ptr_implIN8facebook5velox6memory13MmapAllocator9SizeClassESt14default_deleteIS4_EE6_M_ptrEv(ptr noundef nonnull align 8 dereferenceable(8) %_M_t) #21
  ret ptr %call
}

; Function Attrs: mustprogress nounwind uwtable
define linkonce_odr noundef i64 @_ZNSt13__atomic_baseImEpLEm(ptr noundef nonnull align 8 dereferenceable(8) %this, i64 noundef %__i) #1 comdat align 2 {
entry:
  %this.addr = alloca ptr, align 8
  %__i.addr = alloca i64, align 8
  %.atomictmp = alloca i64, align 8
  %atomic-temp = alloca i64, align 8
  store ptr %this, ptr %this.addr, align 8
  store i64 %__i, ptr %__i.addr, align 8
  %this1 = load ptr, ptr %this.addr, align 8
  %_M_i = getelementptr inbounds %"struct.std::__atomic_base", ptr %this1, i32 0, i32 0
  %0 = load i64, ptr %__i.addr, align 8
  store i64 %0, ptr %.atomictmp, align 8
  %1 = load i64, ptr %.atomictmp, align 8
  %2 = atomicrmw add ptr %_M_i, i64 %1 seq_cst, align 8
  %3 = add i64 %2, %1
  store i64 %3, ptr %atomic-temp, align 8
  %4 = load i64, ptr %atomic-temp, align 8
  ret i64 %4
}

; Function Attrs: mustprogress nounwind uwtable
define linkonce_odr noundef ptr @_ZNKSt10unique_ptrIN8facebook5velox6memory13MmapAllocator9SizeClassESt14default_deleteIS4_EEptEv(ptr noundef nonnull align 8 dereferenceable(8) %this) #1 comdat align 2 {
entry:
  %this.addr = alloca ptr, align 8
  store ptr %this, ptr %this.addr, align 8
  %this1 = load ptr, ptr %this.addr, align 8
  %call = call noundef ptr @_ZNKSt10unique_ptrIN8facebook5velox6memory13MmapAllocator9SizeClassESt14default_deleteIS4_EE3getEv(ptr noundef nonnull align 8 dereferenceable(8) %this1) #21
  ret ptr %call
}

; Function Attrs: mustprogress nounwind uwtable
define linkonce_odr noundef nonnull align 8 dereferenceable(8) ptr @_ZNSt6vectorISt10unique_ptrIN8facebook5velox6memory13MmapAllocator9SizeClassESt14default_deleteIS5_EESaIS8_EEixEm(ptr noundef nonnull align 8 dereferenceable(24) %this, i64 noundef %__n) #1 comdat align 2 {
entry:
  %this.addr = alloca ptr, align 8
  %__n.addr = alloca i64, align 8
  store ptr %this, ptr %this.addr, align 8
  store i64 %__n, ptr %__n.addr, align 8
  %this1 = load ptr, ptr %this.addr, align 8
  %_M_impl = getelementptr inbounds %"struct.std::_Vector_base.3", ptr %this1, i32 0, i32 0
  %_M_start = getelementptr inbounds %"struct.std::_Vector_base<std::unique_ptr<facebook::velox::memory::MmapAllocator::SizeClass>, std::allocator<std::unique_ptr<facebook::velox::memory::MmapAllocator::SizeClass>>>::_Vector_impl_data", ptr %_M_impl, i32 0, i32 0
  %0 = load ptr, ptr %_M_start, align 8
  %1 = load i64, ptr %__n.addr, align 8
  %add.ptr = getelementptr inbounds %"class.std::unique_ptr.9", ptr %0, i64 %1
  ret ptr %add.ptr
}

; Function Attrs: mustprogress nounwind uwtable
define linkonce_odr noundef i64 @_ZNKSt6vectorISt10unique_ptrIN8facebook5velox6memory13MmapAllocator9SizeClassESt14default_deleteIS5_EESaIS8_EE4sizeEv(ptr noundef nonnull align 8 dereferenceable(24) %this) #1 comdat align 2 {
entry:
  %this.addr = alloca ptr, align 8
  store ptr %this, ptr %this.addr, align 8
  %this1 = load ptr, ptr %this.addr, align 8
  %_M_impl = getelementptr inbounds %"struct.std::_Vector_base.3", ptr %this1, i32 0, i32 0
  %_M_finish = getelementptr inbounds %"struct.std::_Vector_base<std::unique_ptr<facebook::velox::memory::MmapAllocator::SizeClass>, std::allocator<std::unique_ptr<facebook::velox::memory::MmapAllocator::SizeClass>>>::_Vector_impl_data", ptr %_M_impl, i32 0, i32 1
  %0 = load ptr, ptr %_M_finish, align 8
  %_M_impl2 = getelementptr inbounds %"struct.std::_Vector_base.3", ptr %this1, i32 0, i32 0
  %_M_start = getelementptr inbounds %"struct.std::_Vector_base<std::unique_ptr<facebook::velox::memory::MmapAllocator::SizeClass>, std::allocator<std::unique_ptr<facebook::velox::memory::MmapAllocator::SizeClass>>>::_Vector_impl_data", ptr %_M_impl2, i32 0, i32 0
  %1 = load ptr, ptr %_M_start, align 8
  %sub.ptr.lhs.cast = ptrtoint ptr %0 to i64
  %sub.ptr.rhs.cast = ptrtoint ptr %1 to i64
  %sub.ptr.sub = sub i64 %sub.ptr.lhs.cast, %sub.ptr.rhs.cast
  %sub.ptr.div = sdiv exact i64 %sub.ptr.sub, 8
  ret i64 %sub.ptr.div
}

; Function Attrs: mustprogress uwtable
define noundef i64 @_ZN8facebook5velox6memory13MmapAllocator10adviseAwayEm(ptr noundef nonnull align 8 dereferenceable(1080) %this, i64 noundef %target) #0 align 2 {
entry:
  %this.addr = alloca ptr, align 8
  %target.addr = alloca i64, align 8
  %numAway = alloca i64, align 8
  %i = alloca i32, align 4
  store ptr %this, ptr %this.addr, align 8
  store i64 %target, ptr %target.addr, align 8
  %this1 = load ptr, ptr %this.addr, align 8
  store i64 0, ptr %numAway, align 8
  %sizeClasses_ = getelementptr inbounds %"class.facebook::velox::memory::MmapAllocator", ptr %this1, i32 0, i32 8
  %call = call noundef i64 @_ZNKSt6vectorISt10unique_ptrIN8facebook5velox6memory13MmapAllocator9SizeClassESt14default_deleteIS5_EESaIS8_EE4sizeEv(ptr noundef nonnull align 8 dereferenceable(24) %sizeClasses_) #21
  %sub = sub i64 %call, 1
  %conv = trunc i64 %sub to i32
  store i32 %conv, ptr %i, align 4
  br label %for.cond

for.cond:                                         ; preds = %for.inc, %entry
  %0 = load i32, ptr %i, align 4
  %cmp = icmp sge i32 %0, 0
  br i1 %cmp, label %for.body, label %for.end

for.body:                                         ; preds = %for.cond
  %sizeClasses_2 = getelementptr inbounds %"class.facebook::velox::memory::MmapAllocator", ptr %this1, i32 0, i32 8
  %1 = load i32, ptr %i, align 4
  %conv3 = sext i32 %1 to i64
  %call4 = call noundef nonnull align 8 dereferenceable(8) ptr @_ZNSt6vectorISt10unique_ptrIN8facebook5velox6memory13MmapAllocator9SizeClassESt14default_deleteIS5_EESaIS8_EEixEm(ptr noundef nonnull align 8 dereferenceable(24) %sizeClasses_2, i64 noundef %conv3) #21
  %call5 = call noundef ptr @_ZNKSt10unique_ptrIN8facebook5velox6memory13MmapAllocator9SizeClassESt14default_deleteIS4_EEptEv(ptr noundef nonnull align 8 dereferenceable(8) %call4) #21
  %2 = load i64, ptr %target.addr, align 8
  %3 = load i64, ptr %numAway, align 8
  %sub6 = sub i64 %2, %3
  %call7 = call noundef i64 @_ZN8facebook5velox6memory13MmapAllocator9SizeClass10adviseAwayEm(ptr noundef nonnull align 8 dereferenceable(192) %call5, i64 noundef %sub6)
  %4 = load i64, ptr %numAway, align 8
  %add = add i64 %4, %call7
  store i64 %add, ptr %numAway, align 8
  %5 = load i64, ptr %numAway, align 8
  %6 = load i64, ptr %target.addr, align 8
  %cmp8 = icmp uge i64 %5, %6
  br i1 %cmp8, label %if.then, label %if.end

if.then:                                          ; preds = %for.body
  br label %for.end

if.end:                                           ; preds = %for.body
  br label %for.inc

for.inc:                                          ; preds = %if.end
  %7 = load i32, ptr %i, align 4
  %dec = add nsw i32 %7, -1
  store i32 %dec, ptr %i, align 4
  br label %for.cond, !llvm.loop !28

for.end:                                          ; preds = %if.then, %for.cond
  %8 = load i64, ptr %numAway, align 8
  %numAdvisedPages_ = getelementptr inbounds %"class.facebook::velox::memory::MmapAllocator", ptr %this1, i32 0, i32 11
  %call9 = call noundef i64 @_ZNSt13__atomic_baseImEpLEm(ptr noundef nonnull align 8 dereferenceable(8) %numAdvisedPages_, i64 noundef %8) #21
  %9 = load i64, ptr %numAway, align 8
  ret i64 %9
}