; Function Attrs: mustprogress uwtable
define noundef i64 @_ZN8facebook5velox6memory13MmapAllocator10adviseAwayEm(ptr nocapture noundef nonnull align 8 dereferenceable(1080) %this, i64 noundef %target) local_unnamed_addr #0 align 2 {
entry:
  %sizeClasses_ = getelementptr inbounds i8, ptr %this, i64 960
  %_M_finish.i = getelementptr inbounds i8, ptr %this, i64 968
  %0 = load ptr, ptr %_M_finish.i, align 8
  %1 = load ptr, ptr %sizeClasses_, align 8
  %sub.ptr.lhs.cast.i = ptrtoint ptr %0 to i64
  %sub.ptr.rhs.cast.i = ptrtoint ptr %1 to i64
  %sub.ptr.sub.i = sub i64 %sub.ptr.lhs.cast.i, %sub.ptr.rhs.cast.i
  %sub.ptr.div.i = lshr i64 %sub.ptr.sub.i, 3
  %2 = and i64 %sub.ptr.div.i, 4294967295
  br label %for.cond

for.cond:                                         ; preds = %for.body, %entry
  %indvars.iv = phi i64 [ %indvars.iv.next, %for.body ], [ %2, %entry ]
  %numAway.0 = phi i64 [ %add, %for.body ], [ 0, %entry ]
  %indvars.iv.next = add nsw i64 %indvars.iv, -1
  %3 = and i64 %indvars.iv.next, 2147483648
  %cmp = icmp eq i64 %3, 0
  br i1 %cmp, label %for.body, label %for.end

for.body:                                         ; preds = %for.cond
  %conv3 = and i64 %indvars.iv.next, 2147483647
  %4 = load ptr, ptr %sizeClasses_, align 8
  %add.ptr.i = getelementptr inbounds %"class.std::unique_ptr.9", ptr %4, i64 %conv3
  %5 = load ptr, ptr %add.ptr.i, align 8
  %sub6 = sub i64 %target, %numAway.0
  %call7 = tail call noundef i64 @_ZN8facebook5velox6memory13MmapAllocator9SizeClass10adviseAwayEm(ptr noundef nonnull align 8 dereferenceable(192) %5, i64 noundef %sub6)
  %add = add i64 %call7, %numAway.0
  %cmp8.not = icmp ult i64 %add, %target
  br i1 %cmp8.not, label %for.cond, label %for.end, !llvm.loop !34

for.end:                                          ; preds = %for.body, %for.cond
  %numAway.1 = phi i64 [ %add, %for.body ], [ %numAway.0, %for.cond ]
  %numAdvisedPages_ = getelementptr inbounds i8, ptr %this, i64 1000
  %6 = atomicrmw add ptr %numAdvisedPages_, i64 %numAway.1 seq_cst, align 8
  ret i64 %numAway.1
}